	.file	"1.cpp"
	.text
	.globl	_Z3addii
	.type	_Z3addii, @function
_Z3addii:
.LFB0:
	.cfi_startproc
	pushq	%rbp
	.cfi_def_cfa_offset 16
	.cfi_offset 6, -16
	movq	%rsp, %rbp
	.cfi_def_cfa_register 6
	movl	%edi, -4(%rbp)
	movl	%esi, -8(%rbp)
	movl	-4(%rbp), %edx
	movl	-8(%rbp), %eax
	addl	%edx, %eax
	popq	%rbp
	.cfi_def_cfa 7, 8
	ret
	.cfi_endproc
.LFE0:
	.size	_Z3addii, .-_Z3addii
	.globl	_Z3addiii
	.type	_Z3addiii, @function
_Z3addiii:
.LFB1:
	.cfi_startproc
	pushq	%rbp
	.cfi_def_cfa_offset 16
	.cfi_offset 6, -16
	movq	%rsp, %rbp
	.cfi_def_cfa_register 6
	movl	%edi, -4(%rbp)
	movl	%esi, -8(%rbp)
	movl	%edx, -12(%rbp)
	movl	-4(%rbp), %edx
	movl	-8(%rbp), %eax
	addl	%eax, %edx
	movl	-12(%rbp), %eax
	addl	%edx, %eax
	popq	%rbp
	.cfi_def_cfa 7, 8
	ret
	.cfi_endproc
.LFE1:
	.size	_Z3addiii, .-_Z3addiii
	.globl	_Z3adddd
	.type	_Z3adddd, @function
_Z3adddd:
.LFB2:
	.cfi_startproc
	pushq	%rbp
	.cfi_def_cfa_offset 16
	.cfi_offset 6, -16
	movq	%rsp, %rbp
	.cfi_def_cfa_register 6
	movsd	%xmm0, -8(%rbp)
	movsd	%xmm1, -16(%rbp)
	movsd	-8(%rbp), %xmm0
	addsd	-16(%rbp), %xmm0
	cvtsd2ss	%xmm0, %xmm0
	popq	%rbp
	.cfi_def_cfa 7, 8
	ret
	.cfi_endproc
.LFE2:
	.size	_Z3adddd, .-_Z3adddd
	.section	.rodata
.LC0:
	.string	"%d\n"
.LC3:
	.string	"%f\n"
	.text
	.globl	main
	.type	main, @function
main:
.LFB3:
	.cfi_startproc
	pushq	%rbp
	.cfi_def_cfa_offset 16
	.cfi_offset 6, -16
	movq	%rsp, %rbp
	.cfi_def_cfa_register 6
	subq	$16, %rsp
	movl	$2, %esi
	movl	$1, %edi
	call	_Z3addii
	movl	%eax, %esi
	leaq	.LC0(%rip), %rdi
	movl	$0, %eax
	call	printf@PLT
	movl	$3, %edx
	movl	$2, %esi
	movl	$1, %edi
	call	_Z3addiii
	movl	%eax, %esi
	leaq	.LC0(%rip), %rdi
	movl	$0, %eax
	call	printf@PLT
	movsd	.LC1(%rip), %xmm0
	movq	.LC2(%rip), %rax
	movapd	%xmm0, %xmm1
	movq	%rax, -8(%rbp)
	movsd	-8(%rbp), %xmm0
	call	_Z3adddd
	cvtss2sd	%xmm0, %xmm0
	leaq	.LC3(%rip), %rdi
	movl	$1, %eax
	call	printf@PLT
	movl	$0, %eax
	leave
	.cfi_def_cfa 7, 8
	ret
	.cfi_endproc
.LFE3:
	.size	main, .-main
	.section	.rodata
	.align 8
.LC1:
	.long	1546188227
	.long	1073857167
	.align 8
.LC2:
	.long	0
	.long	1072693248
	.ident	"GCC: (Ubuntu 7.5.0-3ubuntu1~18.04) 7.5.0"
	.section	.note.GNU-stack,"",@progbits
